target datalayout = "e-m:e-p270:32:32-p271:32:32-p272:64:64-i64:64-i128:128-f80:128-n8:16:32:64-S128"
target triple = "x86_64-pc-linux-gnu"

@hf_opcua_loctext_mask = internal global i32 0, align 4
@hf_opcua_localizedtext_locale = internal global i32 0, align 4
@hf_opcua_localizedtext_text = internal global i32 0, align 4
@parseLocalizedText.loctext_mask = internal constant [3 x ptr] [ptr @hf_opcua_loctext_mask_localeflag, ptr @hf_opcua_loctext_mask_textflag, ptr null], align 16
@ett_opcua_localizedtext = internal global i32 0, align 4
@.str.173 = private unnamed_addr constant [18 x i8] c"%s: LocalizedText\00", align 1
@ett_opcua_localizedtext_encodingmask = internal global i32 0, align 4

; Function Attrs: null_pointer_is_valid sspstrong uwtable
define hidden void @parseLocalizedText(ptr noundef %0, ptr noundef %1, ptr noundef %2, ptr noundef %3, ptr noundef %4) #0 {
  %6 = alloca ptr, align 8
  %7 = alloca ptr, align 8
  %8 = alloca ptr, align 8
  %9 = alloca ptr, align 8
  %10 = alloca ptr, align 8
  %11 = alloca i32, align 4
  %12 = alloca i8, align 1
  %13 = alloca ptr, align 8
  %14 = alloca ptr, align 8
  store ptr %0, ptr %6, align 8
  store ptr %1, ptr %7, align 8
  store ptr %2, ptr %8, align 8
  store ptr %3, ptr %9, align 8
  store ptr %4, ptr %10, align 8
  call void @llvm.lifetime.start.p0(i64 4, ptr %11) #3
  %15 = load ptr, ptr %9, align 8
  %16 = load i32, ptr %15, align 4
  store i32 %16, ptr %11, align 4
  call void @llvm.lifetime.start.p0(i64 1, ptr %12) #3
  call void @llvm.lifetime.start.p0(i64 8, ptr %13) #3
  call void @llvm.lifetime.start.p0(i64 8, ptr %14) #3
  %17 = load ptr, ptr %6, align 8
  %18 = load ptr, ptr %7, align 8
  %19 = load ptr, ptr %9, align 8
  %20 = load i32, ptr %19, align 4
  %21 = load i32, ptr @ett_opcua_localizedtext, align 4
  %22 = load ptr, ptr %10, align 8
  %23 = call ptr (ptr, ptr, i32, i32, i32, ptr, ptr, ...) @proto_tree_add_subtree_format(ptr noundef %17, ptr noundef %18, i32 noundef %20, i32 noundef -1, i32 noundef %21, ptr noundef %14, ptr noundef @.str.173, ptr noundef %22)
  store ptr %23, ptr %13, align 8
  %24 = load ptr, ptr %7, align 8
  %25 = load i32, ptr %11, align 4
  %26 = call zeroext i8 @tvb_get_uint8(ptr noundef %24, i32 noundef %25)
  store i8 %26, ptr %12, align 1
  %27 = load ptr, ptr %13, align 8
  %28 = load ptr, ptr %7, align 8
  %29 = load i32, ptr %11, align 4
  %30 = load i32, ptr @hf_opcua_loctext_mask, align 4
  %31 = load i32, ptr @ett_opcua_localizedtext_encodingmask, align 4
  %32 = call ptr @proto_tree_add_bitmask(ptr noundef %27, ptr noundef %28, i32 noundef %29, i32 noundef %30, i32 noundef %31, ptr noundef @parseLocalizedText.loctext_mask, i32 noundef -2147483648)
  %33 = load i32, ptr %11, align 4
  %34 = add i32 %33, 1
  store i32 %34, ptr %11, align 4
  %35 = load i8, ptr %12, align 1
  %36 = zext i8 %35 to i32
  %37 = and i32 %36, 1
  %38 = icmp ne i32 %37, 0
  br i1 %38, label %39, label %45

39:                                               ; preds = %5
  %40 = load ptr, ptr %13, align 8
  %41 = load ptr, ptr %7, align 8
  %42 = load ptr, ptr %8, align 8
  %43 = load i32, ptr @hf_opcua_localizedtext_locale, align 4
  %44 = call ptr @parseString(ptr noundef %40, ptr noundef %41, ptr noundef %42, ptr noundef %11, i32 noundef %43)
  br label %45

45:                                               ; preds = %39, %5
  %46 = load i8, ptr %12, align 1
  %47 = zext i8 %46 to i32
  %48 = and i32 %47, 2
  %49 = icmp ne i32 %48, 0
  br i1 %49, label %50, label %56

50:                                               ; preds = %45
  %51 = load ptr, ptr %13, align 8
  %52 = load ptr, ptr %7, align 8
  %53 = load ptr, ptr %8, align 8
  %54 = load i32, ptr @hf_opcua_localizedtext_text, align 4
  %55 = call ptr @parseString(ptr noundef %51, ptr noundef %52, ptr noundef %53, ptr noundef %11, i32 noundef %54)
  br label %56

56:                                               ; preds = %50, %45
  %57 = load ptr, ptr %14, align 8
  %58 = load ptr, ptr %7, align 8
  %59 = load i32, ptr %11, align 4
  call void @proto_item_set_end(ptr noundef %57, ptr noundef %58, i32 noundef %59)
  %60 = load i32, ptr %11, align 4
  %61 = load ptr, ptr %9, align 8
  store i32 %60, ptr %61, align 4
  call void @llvm.lifetime.end.p0(i64 8, ptr %14) #3
  call void @llvm.lifetime.end.p0(i64 8, ptr %13) #3
  call void @llvm.lifetime.end.p0(i64 1, ptr %12) #3
  call void @llvm.lifetime.end.p0(i64 4, ptr %11) #3
  ret void
}