; Function Attrs: null_pointer_is_valid sspstrong uwtable
define hidden void @parseLocalizedText(ptr noundef %0, ptr noundef %1, ptr noundef readonly captures(none) %2, ptr noundef captures(none) %3, ptr noundef %4) #0 {
  %6 = alloca i32, align 4
  %7 = alloca ptr, align 8
  call void @llvm.lifetime.start.p0(i64 4, ptr nonnull %6) #4
  %8 = load i32, ptr %3, align 4
  call void @llvm.lifetime.start.p0(i64 8, ptr nonnull %7) #4
  %9 = load i32, ptr @ett_opcua_localizedtext, align 4
  %10 = call ptr (ptr, ptr, i32, i32, i32, ptr, ptr, ...) @proto_tree_add_subtree_format(ptr noundef %0, ptr noundef %1, i32 noundef %8, i32 noundef -1, i32 noundef %9, ptr noundef nonnull %7, ptr noundef nonnull @.str.173, ptr noundef %4)
  %11 = call zeroext i8 @tvb_get_uint8(ptr noundef %1, i32 noundef %8)
  %12 = load i32, ptr @hf_opcua_loctext_mask, align 4
  %13 = load i32, ptr @ett_opcua_localizedtext_encodingmask, align 4
  %14 = call ptr @proto_tree_add_bitmask(ptr noundef %10, ptr noundef %1, i32 noundef %8, i32 noundef %12, i32 noundef %13, ptr noundef nonnull @parseLocalizedText.loctext_mask, i32 noundef -2147483648)
  %15 = add i32 %8, 1
  store i32 %15, ptr %6, align 4
  %16 = zext i8 %11 to i32
  %17 = and i32 %16, 1
  %.not = icmp eq i32 %17, 0
  br i1 %.not, label %21, label %18

18:                                               ; preds = %5
  %19 = load i32, ptr @hf_opcua_localizedtext_locale, align 4
  %20 = call ptr @parseString(ptr noundef %10, ptr noundef %1, ptr noundef %2, ptr noundef nonnull %6, i32 noundef %19)
  br label %21

21:                                               ; preds = %18, %5
  %22 = and i32 %16, 2
  %.not17 = icmp eq i32 %22, 0
  br i1 %.not17, label %26, label %23

23:                                               ; preds = %21
  %24 = load i32, ptr @hf_opcua_localizedtext_text, align 4
  %25 = call ptr @parseString(ptr noundef %10, ptr noundef %1, ptr noundef %2, ptr noundef nonnull %6, i32 noundef %24)
  br label %26

26:                                               ; preds = %23, %21
  %27 = load ptr, ptr %7, align 8
  %28 = load i32, ptr %6, align 4
  call void @proto_item_set_end(ptr noundef %27, ptr noundef %1, i32 noundef %28)
  store i32 %28, ptr %3, align 4
  call void @llvm.lifetime.end.p0(i64 8, ptr nonnull %7) #4
  call void @llvm.lifetime.end.p0(i64 4, ptr nonnull %6) #4
  ret void
}